; Function Attrs: mustprogress uwtable
define void @_ZNK6icu_7513MessageFormat33getLiteralStringUntilNextArgumentEi(ptr noalias sret(%"class.icu_75::UnicodeString") align 8 %agg.result, ptr noundef nonnull align 8 dereferenceable(816) %this, i32 noundef %from) local_unnamed_addr #1 align 2 personality ptr @__gxx_personality_v0 {
entry:
  %msg.i = getelementptr inbounds i8, ptr %this, i64 568
  %parts.i = getelementptr inbounds i8, ptr %this, i64 640
  %0 = load ptr, ptr %parts.i, align 8
  %idxprom.i = sext i32 %from to i64
  %arrayidx.i = getelementptr inbounds %"class.icu_75::MessagePattern::Part", ptr %0, i64 %idxprom.i
  %index.i = getelementptr inbounds i8, ptr %arrayidx.i, i64 4
  %1 = load i32, ptr %index.i, align 4
  %length.i = getelementptr inbounds i8, ptr %arrayidx.i, i64 8
  %2 = load i16, ptr %length.i, align 4
  %conv.i = zext i16 %2 to i32
  %add.i = add nsw i32 %1, %conv.i
  store ptr getelementptr inbounds ({ [13 x ptr] }, ptr @_ZTVN6icu_7513UnicodeStringE, i64 0, i32 0, i64 2), ptr %agg.result, align 8
  %fUnion2.i = getelementptr inbounds i8, ptr %agg.result, i64 8
  store i16 2, ptr %fUnion2.i, align 8
  br label %for.cond

for.cond:                                         ; preds = %if.end, %entry
  %3 = phi ptr [ %.pre, %if.end ], [ %0, %entry ]
  %indvars.iv = phi i64 [ %indvars.iv.next, %if.end ], [ %idxprom.i, %entry ]
  %prevIndex.0 = phi i32 [ %add.i15, %if.end ], [ %add.i, %entry ]
  %indvars.iv.next = add nsw i64 %indvars.iv, 1
  %arrayidx.i9 = getelementptr inbounds %"class.icu_75::MessagePattern::Part", ptr %3, i64 %indvars.iv.next
  %4 = load i32, ptr %arrayidx.i9, align 4
  %index.i10 = getelementptr inbounds i8, ptr %arrayidx.i9, i64 4
  %5 = load i32, ptr %index.i10, align 4
  %sub = sub nsw i32 %5, %prevIndex.0
  %call.i11 = invoke noundef nonnull align 8 dereferenceable(64) ptr @_ZN6icu_7513UnicodeString8doAppendERKS0_ii(ptr noundef nonnull align 8 dereferenceable(64) %agg.result, ptr noundef nonnull align 8 dereferenceable(64) %msg.i, i32 noundef %prevIndex.0, i32 noundef %sub)
          to label %invoke.cont11 unwind label %lpad

invoke.cont11:                                    ; preds = %for.cond
  %6 = and i32 %4, -5
  %or.cond = icmp eq i32 %6, 1
  br i1 %or.cond, label %nrvo.skipdtor, label %if.end

lpad:                                             ; preds = %for.cond
  %7 = landingpad { ptr, i32 }
          cleanup
  tail call void @_ZN6icu_7513UnicodeStringD1Ev(ptr noundef nonnull align 8 dereferenceable(64) %agg.result) #19
  resume { ptr, i32 } %7

if.end:                                           ; preds = %invoke.cont11
  %8 = load i32, ptr %index.i10, align 4
  %length.i13 = getelementptr inbounds i8, ptr %arrayidx.i9, i64 8
  %9 = load i16, ptr %length.i13, align 4
  %conv.i14 = zext i16 %9 to i32
  %add.i15 = add nsw i32 %8, %conv.i14
  %.pre = load ptr, ptr %parts.i, align 8
  br label %for.cond, !llvm.loop !42

nrvo.skipdtor:                                    ; preds = %invoke.cont11
  ret void
}